target datalayout = "e-m:e-p270:32:32-p271:32:32-p272:64:64-i64:64-i128:128-f80:128-n8:16:32:64-S128"
target triple = "x86_64-pc-linux-gnu"

%"class.cv::Matx.0" = type { [9 x double] }

; Function Attrs: inlinehint mustprogress nounwind uwtable
define linkonce_odr hidden noundef nonnull align 8 dereferenceable(8) ptr @_ZNK2cv4MatxIdLi9ELi1EEclEi(ptr noundef nonnull align 8 dereferenceable(72) %0, i32 noundef %1) #4 comdat align 2 {
  %3 = alloca ptr, align 8
  %4 = alloca i32, align 4
  store ptr %0, ptr %3, align 8, !tbaa !83
  store i32 %1, ptr %4, align 4, !tbaa !7
  %5 = load ptr, ptr %3, align 8
  %6 = getelementptr inbounds nuw %"class.cv::Matx.0", ptr %5, i32 0, i32 0
  %7 = load i32, ptr %4, align 4, !tbaa !7
  %8 = sext i32 %7 to i64
  %9 = getelementptr inbounds [9 x double], ptr %6, i64 0, i64 %8
  ret ptr %9
}

; Function Attrs: mustprogress uwtable
define hidden noundef double @_ZN2cv5sqpnp10PoseSolver6det3x3ERKNS_4MatxIdLi9ELi1EEE(ptr noundef nonnull align 8 dereferenceable(72) %0) #6 align 2 {
  %2 = alloca ptr, align 8
  store ptr %0, ptr %2, align 8, !tbaa !83
  %3 = load ptr, ptr %2, align 8, !tbaa !83
  %4 = call noundef nonnull align 8 dereferenceable(8) ptr @_ZNK2cv4MatxIdLi9ELi1EEclEi(ptr noundef nonnull align 8 dereferenceable(72) %3, i32 noundef 0)
  %5 = load double, ptr %4, align 8, !tbaa !3
  %6 = load ptr, ptr %2, align 8, !tbaa !83
  %7 = call noundef nonnull align 8 dereferenceable(8) ptr @_ZNK2cv4MatxIdLi9ELi1EEclEi(ptr noundef nonnull align 8 dereferenceable(72) %6, i32 noundef 4)
  %8 = load double, ptr %7, align 8, !tbaa !3
  %9 = fmul double %5, %8
  %10 = load ptr, ptr %2, align 8, !tbaa !83
  %11 = call noundef nonnull align 8 dereferenceable(8) ptr @_ZNK2cv4MatxIdLi9ELi1EEclEi(ptr noundef nonnull align 8 dereferenceable(72) %10, i32 noundef 8)
  %12 = load double, ptr %11, align 8, !tbaa !3
  %13 = load ptr, ptr %2, align 8, !tbaa !83
  %14 = call noundef nonnull align 8 dereferenceable(8) ptr @_ZNK2cv4MatxIdLi9ELi1EEclEi(ptr noundef nonnull align 8 dereferenceable(72) %13, i32 noundef 1)
  %15 = load double, ptr %14, align 8, !tbaa !3
  %16 = load ptr, ptr %2, align 8, !tbaa !83
  %17 = call noundef nonnull align 8 dereferenceable(8) ptr @_ZNK2cv4MatxIdLi9ELi1EEclEi(ptr noundef nonnull align 8 dereferenceable(72) %16, i32 noundef 5)
  %18 = load double, ptr %17, align 8, !tbaa !3
  %19 = fmul double %15, %18
  %20 = load ptr, ptr %2, align 8, !tbaa !83
  %21 = call noundef nonnull align 8 dereferenceable(8) ptr @_ZNK2cv4MatxIdLi9ELi1EEclEi(ptr noundef nonnull align 8 dereferenceable(72) %20, i32 noundef 6)
  %22 = load double, ptr %21, align 8, !tbaa !3
  %23 = fmul double %19, %22
  %24 = call double @llvm.fmuladd.f64(double %9, double %12, double %23)
  %25 = load ptr, ptr %2, align 8, !tbaa !83
  %26 = call noundef nonnull align 8 dereferenceable(8) ptr @_ZNK2cv4MatxIdLi9ELi1EEclEi(ptr noundef nonnull align 8 dereferenceable(72) %25, i32 noundef 2)
  %27 = load double, ptr %26, align 8, !tbaa !3
  %28 = load ptr, ptr %2, align 8, !tbaa !83
  %29 = call noundef nonnull align 8 dereferenceable(8) ptr @_ZNK2cv4MatxIdLi9ELi1EEclEi(ptr noundef nonnull align 8 dereferenceable(72) %28, i32 noundef 3)
  %30 = load double, ptr %29, align 8, !tbaa !3
  %31 = fmul double %27, %30
  %32 = load ptr, ptr %2, align 8, !tbaa !83
  %33 = call noundef nonnull align 8 dereferenceable(8) ptr @_ZNK2cv4MatxIdLi9ELi1EEclEi(ptr noundef nonnull align 8 dereferenceable(72) %32, i32 noundef 7)
  %34 = load double, ptr %33, align 8, !tbaa !3
  %35 = call double @llvm.fmuladd.f64(double %31, double %34, double %24)
  %36 = load ptr, ptr %2, align 8, !tbaa !83
  %37 = call noundef nonnull align 8 dereferenceable(8) ptr @_ZNK2cv4MatxIdLi9ELi1EEclEi(ptr noundef nonnull align 8 dereferenceable(72) %36, i32 noundef 6)
  %38 = load double, ptr %37, align 8, !tbaa !3
  %39 = load ptr, ptr %2, align 8, !tbaa !83
  %40 = call noundef nonnull align 8 dereferenceable(8) ptr @_ZNK2cv4MatxIdLi9ELi1EEclEi(ptr noundef nonnull align 8 dereferenceable(72) %39, i32 noundef 4)
  %41 = load double, ptr %40, align 8, !tbaa !3
  %42 = fmul double %38, %41
  %43 = load ptr, ptr %2, align 8, !tbaa !83
  %44 = call noundef nonnull align 8 dereferenceable(8) ptr @_ZNK2cv4MatxIdLi9ELi1EEclEi(ptr noundef nonnull align 8 dereferenceable(72) %43, i32 noundef 2)
  %45 = load double, ptr %44, align 8, !tbaa !3
  %46 = load ptr, ptr %2, align 8, !tbaa !83
  %47 = call noundef nonnull align 8 dereferenceable(8) ptr @_ZNK2cv4MatxIdLi9ELi1EEclEi(ptr noundef nonnull align 8 dereferenceable(72) %46, i32 noundef 7)
  %48 = load double, ptr %47, align 8, !tbaa !3
  %49 = load ptr, ptr %2, align 8, !tbaa !83
  %50 = call noundef nonnull align 8 dereferenceable(8) ptr @_ZNK2cv4MatxIdLi9ELi1EEclEi(ptr noundef nonnull align 8 dereferenceable(72) %49, i32 noundef 5)
  %51 = load double, ptr %50, align 8, !tbaa !3
  %52 = fmul double %48, %51
  %53 = load ptr, ptr %2, align 8, !tbaa !83
  %54 = call noundef nonnull align 8 dereferenceable(8) ptr @_ZNK2cv4MatxIdLi9ELi1EEclEi(ptr noundef nonnull align 8 dereferenceable(72) %53, i32 noundef 0)
  %55 = load double, ptr %54, align 8, !tbaa !3
  %56 = fmul double %52, %55
  %57 = call double @llvm.fmuladd.f64(double %42, double %45, double %56)
  %58 = load ptr, ptr %2, align 8, !tbaa !83
  %59 = call noundef nonnull align 8 dereferenceable(8) ptr @_ZNK2cv4MatxIdLi9ELi1EEclEi(ptr noundef nonnull align 8 dereferenceable(72) %58, i32 noundef 8)
  %60 = load double, ptr %59, align 8, !tbaa !3
  %61 = load ptr, ptr %2, align 8, !tbaa !83
  %62 = call noundef nonnull align 8 dereferenceable(8) ptr @_ZNK2cv4MatxIdLi9ELi1EEclEi(ptr noundef nonnull align 8 dereferenceable(72) %61, i32 noundef 3)
  %63 = load double, ptr %62, align 8, !tbaa !3
  %64 = fmul double %60, %63
  %65 = load ptr, ptr %2, align 8, !tbaa !83
  %66 = call noundef nonnull align 8 dereferenceable(8) ptr @_ZNK2cv4MatxIdLi9ELi1EEclEi(ptr noundef nonnull align 8 dereferenceable(72) %65, i32 noundef 1)
  %67 = load double, ptr %66, align 8, !tbaa !3
  %68 = call double @llvm.fmuladd.f64(double %64, double %67, double %57)
  %69 = fsub double %35, %68
  ret double %69
}