; Function Attrs: mustprogress nofree norecurse nosync nounwind willreturn memory(argmem: read) uwtable
define hidden noundef double @_ZN2cv5sqpnp10PoseSolver6det3x3ERKNS_4MatxIdLi9ELi1EEE(ptr noundef nonnull readonly align 8 captures(none) dereferenceable(72) %0) local_unnamed_addr #12 align 2 {
  %2 = load double, ptr %0, align 8, !tbaa !70
  %3 = getelementptr inbounds nuw i8, ptr %0, i64 32
  %4 = load double, ptr %3, align 8, !tbaa !70
  %5 = fmul double %2, %4
  %6 = getelementptr inbounds nuw i8, ptr %0, i64 64
  %7 = load double, ptr %6, align 8, !tbaa !70
  %8 = getelementptr inbounds nuw i8, ptr %0, i64 8
  %9 = load double, ptr %8, align 8, !tbaa !70
  %10 = getelementptr inbounds nuw i8, ptr %0, i64 40
  %11 = load double, ptr %10, align 8, !tbaa !70
  %12 = fmul double %9, %11
  %13 = getelementptr inbounds nuw i8, ptr %0, i64 48
  %14 = load double, ptr %13, align 8, !tbaa !70
  %15 = fmul double %12, %14
  %16 = tail call double @llvm.fmuladd.f64(double %5, double %7, double %15)
  %17 = getelementptr inbounds nuw i8, ptr %0, i64 16
  %18 = load double, ptr %17, align 8, !tbaa !70
  %19 = getelementptr inbounds nuw i8, ptr %0, i64 24
  %20 = load double, ptr %19, align 8, !tbaa !70
  %21 = fmul double %18, %20
  %22 = getelementptr inbounds nuw i8, ptr %0, i64 56
  %23 = load double, ptr %22, align 8, !tbaa !70
  %24 = tail call double @llvm.fmuladd.f64(double %21, double %23, double %16)
  %25 = fmul double %4, %14
  %26 = fmul double %11, %23
  %27 = fmul double %2, %26
  %28 = tail call double @llvm.fmuladd.f64(double %25, double %18, double %27)
  %29 = fmul double %7, %20
  %30 = tail call double @llvm.fmuladd.f64(double %29, double %9, double %28)
  %31 = fsub double %24, %30
  ret double %31
}